target datalayout = "e-m:e-p270:32:32-p271:32:32-p272:64:64-i64:64-i128:128-f80:128-n8:16:32:64-S128"
target triple = "x86_64-pc-linux-gnu"

%struct.IntraX8Context = type { [4 x ptr], ptr, [3 x ptr], i32, ptr, [3 x [64 x i8]], %struct.WMV2DSPContext, [64 x i8], ptr, ptr, %struct.IntraX8DSPContext, %struct.BlockDSPContext, i32, i32, i32, i32, ptr, ptr, i32, i32, i32, [3 x ptr], [42 x i8], i32, i32, i32, i32, i32, i32, i32, i32, i32, i32, i32 }
%struct.WMV2DSPContext = type { ptr, ptr, [8 x ptr], i32 }
%struct.IntraX8DSPContext = type { ptr, ptr, [12 x ptr], ptr }
%struct.BlockDSPContext = type { ptr, ptr, [2 x ptr] }

@ff_intrax8_common_init.init_static_once = internal global i32 0, align 4
@ff_wmv1_scantable = external hidden constant [4 x [64 x i8]], align 16

; Function Attrs: cold nounwind optsize uwtable
define i32 @ff_intrax8_common_init(ptr noundef %0, ptr noundef %1, ptr noundef %2, i32 noundef %3, i32 noundef %4) #0 {
  %6 = alloca i32, align 4
  %7 = alloca ptr, align 8
  %8 = alloca ptr, align 8
  %9 = alloca ptr, align 8
  %10 = alloca i32, align 4
  %11 = alloca i32, align 4
  store ptr %0, ptr %7, align 8, !tbaa !4
  store ptr %1, ptr %8, align 8, !tbaa !9
  store ptr %2, ptr %9, align 8, !tbaa !11
  store i32 %3, ptr %10, align 4, !tbaa !13
  store i32 %4, ptr %11, align 4, !tbaa !13
  %12 = load ptr, ptr %7, align 8, !tbaa !4
  %13 = load ptr, ptr %8, align 8, !tbaa !9
  %14 = getelementptr inbounds nuw %struct.IntraX8Context, ptr %13, i32 0, i32 8
  store ptr %12, ptr %14, align 8, !tbaa !15
  %15 = load i32, ptr %10, align 4, !tbaa !13
  %16 = load ptr, ptr %8, align 8, !tbaa !9
  %17 = getelementptr inbounds nuw %struct.IntraX8Context, ptr %16, i32 0, i32 32
  store i32 %15, ptr %17, align 8, !tbaa !24
  %18 = load i32, ptr %11, align 4, !tbaa !13
  %19 = load ptr, ptr %8, align 8, !tbaa !9
  %20 = getelementptr inbounds nuw %struct.IntraX8Context, ptr %19, i32 0, i32 33
  store i32 %18, ptr %20, align 4, !tbaa !25
  %21 = load ptr, ptr %9, align 8, !tbaa !11
  %22 = load ptr, ptr %8, align 8, !tbaa !9
  %23 = getelementptr inbounds nuw %struct.IntraX8Context, ptr %22, i32 0, i32 9
  store ptr %21, ptr %23, align 8, !tbaa !26
  %24 = load ptr, ptr %8, align 8, !tbaa !9
  %25 = getelementptr inbounds nuw %struct.IntraX8Context, ptr %24, i32 0, i32 32
  %26 = load i32, ptr %25, align 8, !tbaa !24
  %27 = mul nsw i32 %26, 2
  %28 = mul nsw i32 %27, 2
  %29 = sext i32 %28 to i64
  %30 = call noalias ptr @av_mallocz(i64 noundef %29)
  %31 = load ptr, ptr %8, align 8, !tbaa !9
  %32 = getelementptr inbounds nuw %struct.IntraX8Context, ptr %31, i32 0, i32 4
  store ptr %30, ptr %32, align 8, !tbaa !27
  %33 = load ptr, ptr %8, align 8, !tbaa !9
  %34 = getelementptr inbounds nuw %struct.IntraX8Context, ptr %33, i32 0, i32 4
  %35 = load ptr, ptr %34, align 8, !tbaa !27
  %36 = icmp ne ptr %35, null
  br i1 %36, label %38, label %37

37:                                               ; preds = %5
  store i32 -12, ptr %6, align 4
  br label %74

38:                                               ; preds = %5
  %39 = load ptr, ptr %8, align 8, !tbaa !9
  %40 = getelementptr inbounds nuw %struct.IntraX8Context, ptr %39, i32 0, i32 6
  call void @ff_wmv2dsp_init(ptr noundef %40)
  %41 = load ptr, ptr %8, align 8, !tbaa !9
  %42 = getelementptr inbounds nuw %struct.IntraX8Context, ptr %41, i32 0, i32 7
  %43 = getelementptr inbounds [64 x i8], ptr %42, i64 0, i64 0
  %44 = load ptr, ptr %8, align 8, !tbaa !9
  %45 = getelementptr inbounds nuw %struct.IntraX8Context, ptr %44, i32 0, i32 6
  %46 = getelementptr inbounds nuw %struct.WMV2DSPContext, ptr %45, i32 0, i32 3
  %47 = load i32, ptr %46, align 8, !tbaa !28
  call void @ff_init_scantable_permutation(ptr noundef %43, i32 noundef %47)
  %48 = load ptr, ptr %8, align 8, !tbaa !9
  %49 = getelementptr inbounds nuw %struct.IntraX8Context, ptr %48, i32 0, i32 5
  %50 = getelementptr inbounds [3 x [64 x i8]], ptr %49, i64 0, i64 0
  %51 = getelementptr inbounds [64 x i8], ptr %50, i64 0, i64 0
  %52 = load ptr, ptr %8, align 8, !tbaa !9
  %53 = getelementptr inbounds nuw %struct.IntraX8Context, ptr %52, i32 0, i32 7
  %54 = getelementptr inbounds [64 x i8], ptr %53, i64 0, i64 0
  call void @ff_permute_scantable(ptr noundef %51, ptr noundef @ff_wmv1_scantable, ptr noundef %54)
  %55 = load ptr, ptr %8, align 8, !tbaa !9
  %56 = getelementptr inbounds nuw %struct.IntraX8Context, ptr %55, i32 0, i32 5
  %57 = getelementptr inbounds [3 x [64 x i8]], ptr %56, i64 0, i64 1
  %58 = getelementptr inbounds [64 x i8], ptr %57, i64 0, i64 0
  %59 = load ptr, ptr %8, align 8, !tbaa !9
  %60 = getelementptr inbounds nuw %struct.IntraX8Context, ptr %59, i32 0, i32 7
  %61 = getelementptr inbounds [64 x i8], ptr %60, i64 0, i64 0
  call void @ff_permute_scantable(ptr noundef %58, ptr noundef getelementptr inbounds ([4 x [64 x i8]], ptr @ff_wmv1_scantable, i64 0, i64 2), ptr noundef %61)
  %62 = load ptr, ptr %8, align 8, !tbaa !9
  %63 = getelementptr inbounds nuw %struct.IntraX8Context, ptr %62, i32 0, i32 5
  %64 = getelementptr inbounds [3 x [64 x i8]], ptr %63, i64 0, i64 2
  %65 = getelementptr inbounds [64 x i8], ptr %64, i64 0, i64 0
  %66 = load ptr, ptr %8, align 8, !tbaa !9
  %67 = getelementptr inbounds nuw %struct.IntraX8Context, ptr %66, i32 0, i32 7
  %68 = getelementptr inbounds [64 x i8], ptr %67, i64 0, i64 0
  call void @ff_permute_scantable(ptr noundef %65, ptr noundef getelementptr inbounds ([4 x [64 x i8]], ptr @ff_wmv1_scantable, i64 0, i64 3), ptr noundef %68)
  %69 = load ptr, ptr %8, align 8, !tbaa !9
  %70 = getelementptr inbounds nuw %struct.IntraX8Context, ptr %69, i32 0, i32 10
  call void @ff_intrax8dsp_init(ptr noundef %70)
  %71 = load ptr, ptr %8, align 8, !tbaa !9
  %72 = getelementptr inbounds nuw %struct.IntraX8Context, ptr %71, i32 0, i32 11
  call void @ff_blockdsp_init(ptr noundef %72)
  %73 = call i32 @pthread_once(ptr noundef @ff_intrax8_common_init.init_static_once, ptr noundef @x8_vlc_init)
  store i32 0, ptr %6, align 4
  br label %74

74:                                               ; preds = %38, %37
  %75 = load i32, ptr %6, align 4
  ret i32 %75
}