; Function Attrs: cold nounwind optsize uwtable
define range(i32 -12, 1) i32 @ff_intrax8_common_init(ptr noundef %0, ptr noundef initializes((72, 80), (424, 440), (744, 752)) %1, ptr noundef %2, i32 noundef %3, i32 noundef %4) local_unnamed_addr #0 {
  %6 = getelementptr inbounds nuw i8, ptr %1, i64 424
  store ptr %0, ptr %6, align 8, !tbaa !4
  %7 = getelementptr inbounds nuw i8, ptr %1, i64 744
  store i32 %3, ptr %7, align 8, !tbaa !19
  %8 = getelementptr inbounds nuw i8, ptr %1, i64 748
  store i32 %4, ptr %8, align 4, !tbaa !20
  %9 = getelementptr inbounds nuw i8, ptr %1, i64 432
  store ptr %2, ptr %9, align 8, !tbaa !21
  %10 = shl nsw i32 %3, 2
  %11 = sext i32 %10 to i64
  %12 = tail call noalias ptr @av_mallocz(i64 noundef %11) #7
  %13 = getelementptr inbounds nuw i8, ptr %1, i64 72
  store ptr %12, ptr %13, align 8, !tbaa !22
  %.not = icmp eq ptr %12, null
  br i1 %.not, label %25, label %14

14:                                               ; preds = %5
  %15 = getelementptr inbounds nuw i8, ptr %1, i64 272
  tail call void @ff_wmv2dsp_init(ptr noundef nonnull %15) #7
  %16 = getelementptr inbounds nuw i8, ptr %1, i64 360
  %17 = getelementptr inbounds nuw i8, ptr %1, i64 352
  %18 = load i32, ptr %17, align 8, !tbaa !23
  tail call void @ff_init_scantable_permutation(ptr noundef nonnull %16, i32 noundef %18) #7
  %19 = getelementptr inbounds nuw i8, ptr %1, i64 80
  tail call void @ff_permute_scantable(ptr noundef nonnull %19, ptr noundef nonnull @ff_wmv1_scantable, ptr noundef nonnull %16) #7
  %20 = getelementptr inbounds nuw i8, ptr %1, i64 144
  tail call void @ff_permute_scantable(ptr noundef nonnull %20, ptr noundef nonnull getelementptr inbounds nuw (i8, ptr @ff_wmv1_scantable, i64 128), ptr noundef nonnull %16) #7
  %21 = getelementptr inbounds nuw i8, ptr %1, i64 208
  tail call void @ff_permute_scantable(ptr noundef nonnull %21, ptr noundef nonnull getelementptr inbounds nuw (i8, ptr @ff_wmv1_scantable, i64 192), ptr noundef nonnull %16) #7
  %22 = getelementptr inbounds nuw i8, ptr %1, i64 440
  tail call void @ff_intrax8dsp_init(ptr noundef nonnull %22) #7
  %23 = getelementptr inbounds nuw i8, ptr %1, i64 560
  tail call void @ff_blockdsp_init(ptr noundef nonnull %23) #7
  %24 = tail call i32 @pthread_once(ptr noundef nonnull @ff_intrax8_common_init.init_static_once, ptr noundef nonnull @x8_vlc_init) #7
  br label %25

25:                                               ; preds = %5, %14
  %.0 = phi i32 [ 0, %14 ], [ -12, %5 ]
  ret i32 %.0
}